target datalayout = "e-m:e-p270:32:32-p271:32:32-p272:64:64-i64:64-i128:128-f80:128-n8:16:32:64-S128"
target triple = "x86_64-unknown-linux-gnu"

; Function Attrs: mustprogress nounwind uwtable
define void @_ZN6icu_7518CollationTailoring15makeBaseVersionEPKhPh(ptr noundef %ucaVersion, ptr noundef %version) #1 align 2 {
entry:
  %ucaVersion.addr = alloca ptr, align 8
  %version.addr = alloca ptr, align 8
  store ptr %ucaVersion, ptr %ucaVersion.addr, align 8
  store ptr %version, ptr %version.addr, align 8
  %0 = load ptr, ptr %version.addr, align 8
  %arrayidx = getelementptr inbounds i8, ptr %0, i64 0
  store i8 9, ptr %arrayidx, align 1
  %1 = load ptr, ptr %ucaVersion.addr, align 8
  %arrayidx1 = getelementptr inbounds i8, ptr %1, i64 0
  %2 = load i8, ptr %arrayidx1, align 1
  %conv = zext i8 %2 to i32
  %shl = shl i32 %conv, 3
  %3 = load ptr, ptr %ucaVersion.addr, align 8
  %arrayidx2 = getelementptr inbounds i8, ptr %3, i64 1
  %4 = load i8, ptr %arrayidx2, align 1
  %conv3 = zext i8 %4 to i32
  %add = add nsw i32 %shl, %conv3
  %conv4 = trunc i32 %add to i8
  %5 = load ptr, ptr %version.addr, align 8
  %arrayidx5 = getelementptr inbounds i8, ptr %5, i64 1
  store i8 %conv4, ptr %arrayidx5, align 1
  %6 = load ptr, ptr %ucaVersion.addr, align 8
  %arrayidx6 = getelementptr inbounds i8, ptr %6, i64 2
  %7 = load i8, ptr %arrayidx6, align 1
  %conv7 = zext i8 %7 to i32
  %shl8 = shl i32 %conv7, 6
  %conv9 = trunc i32 %shl8 to i8
  %8 = load ptr, ptr %version.addr, align 8
  %arrayidx10 = getelementptr inbounds i8, ptr %8, i64 2
  store i8 %conv9, ptr %arrayidx10, align 1
  %9 = load ptr, ptr %version.addr, align 8
  %arrayidx11 = getelementptr inbounds i8, ptr %9, i64 3
  store i8 0, ptr %arrayidx11, align 1
  ret void
}