; Function Attrs: mustprogress nofree norecurse nosync nounwind willreturn memory(argmem: readwrite) uwtable
define void @_ZN6icu_7518CollationTailoring15makeBaseVersionEPKhPh(ptr nocapture noundef readonly %ucaVersion, ptr nocapture noundef writeonly %version) local_unnamed_addr #5 align 2 {
entry:
  store i8 9, ptr %version, align 1
  %0 = load i8, ptr %ucaVersion, align 1
  %shl = shl i8 %0, 3
  %arrayidx2 = getelementptr inbounds i8, ptr %ucaVersion, i64 1
  %1 = load i8, ptr %arrayidx2, align 1
  %add = add i8 %shl, %1
  %arrayidx5 = getelementptr inbounds i8, ptr %version, i64 1
  store i8 %add, ptr %arrayidx5, align 1
  %arrayidx6 = getelementptr inbounds i8, ptr %ucaVersion, i64 2
  %2 = load i8, ptr %arrayidx6, align 1
  %shl8 = shl i8 %2, 6
  %arrayidx10 = getelementptr inbounds i8, ptr %version, i64 2
  store i8 %shl8, ptr %arrayidx10, align 1
  %arrayidx11 = getelementptr inbounds i8, ptr %version, i64 3
  store i8 0, ptr %arrayidx11, align 1
  ret void
}